target datalayout = "e-m:e-p270:32:32-p271:32:32-p272:64:64-i64:64-i128:128-f80:128-n8:16:32:64-S128"
target triple = "x86_64-pc-linux-gnu"

%struct.cb_cleanup_dir = type { ptr, i8, ptr }

@cleanup_dir_list = internal global ptr null, align 8
@.str.61 = private unnamed_addr constant [31 x i8] c"removing output directory \22%s\22\00", align 1
@.str.62 = private unnamed_addr constant [34 x i8] c"failed to remove output directory\00", align 1
@.str.63 = private unnamed_addr constant [43 x i8] c"removing contents of output directory \22%s\22\00", align 1
@.str.64 = private unnamed_addr constant [46 x i8] c"failed to remove contents of output directory\00", align 1

; Function Attrs: nounwind uwtable
define internal void @cleanup_directories_atexit() #0 {
  %1 = alloca ptr, align 8
  br label %2

2:                                                ; preds = %39, %0
  %3 = load ptr, ptr @cleanup_dir_list, align 8
  %4 = icmp ne ptr %3, null
  br i1 %4, label %5, label %44

5:                                                ; preds = %2
  call void @llvm.lifetime.start.p0(i64 8, ptr %1) #9
  %6 = load ptr, ptr @cleanup_dir_list, align 8
  store ptr %6, ptr %1, align 8
  %7 = load ptr, ptr %1, align 8
  %8 = getelementptr inbounds nuw %struct.cb_cleanup_dir, ptr %7, i32 0, i32 1
  %9 = load i8, ptr %8, align 8, !range !6, !noundef !7
  %10 = trunc i8 %9 to i1
  br i1 %10, label %11, label %25

11:                                               ; preds = %5
  %12 = load ptr, ptr %1, align 8
  %13 = getelementptr inbounds nuw %struct.cb_cleanup_dir, ptr %12, i32 0, i32 0
  %14 = load ptr, ptr %13, align 8
  call void (i32, i32, ptr, ...) @pg_log_generic(i32 noundef 2, i32 noundef 0, ptr noundef @.str.61, ptr noundef %14)
  %15 = load ptr, ptr %1, align 8
  %16 = getelementptr inbounds nuw %struct.cb_cleanup_dir, ptr %15, i32 0, i32 0
  %17 = load ptr, ptr %16, align 8
  %18 = load ptr, ptr %1, align 8
  %19 = getelementptr inbounds nuw %struct.cb_cleanup_dir, ptr %18, i32 0, i32 1
  %20 = load i8, ptr %19, align 8, !range !6, !noundef !7
  %21 = trunc i8 %20 to i1
  %22 = call zeroext i1 @rmtree(ptr noundef %17, i1 noundef zeroext %21)
  br i1 %22, label %24, label %23

23:                                               ; preds = %11
  call void (i32, i32, ptr, ...) @pg_log_generic(i32 noundef 4, i32 noundef 0, ptr noundef @.str.62)
  br label %24

24:                                               ; preds = %23, %11
  br label %39

25:                                               ; preds = %5
  %26 = load ptr, ptr %1, align 8
  %27 = getelementptr inbounds nuw %struct.cb_cleanup_dir, ptr %26, i32 0, i32 0
  %28 = load ptr, ptr %27, align 8
  call void (i32, i32, ptr, ...) @pg_log_generic(i32 noundef 2, i32 noundef 0, ptr noundef @.str.63, ptr noundef %28)
  %29 = load ptr, ptr %1, align 8
  %30 = getelementptr inbounds nuw %struct.cb_cleanup_dir, ptr %29, i32 0, i32 0
  %31 = load ptr, ptr %30, align 8
  %32 = load ptr, ptr %1, align 8
  %33 = getelementptr inbounds nuw %struct.cb_cleanup_dir, ptr %32, i32 0, i32 1
  %34 = load i8, ptr %33, align 8, !range !6, !noundef !7
  %35 = trunc i8 %34 to i1
  %36 = call zeroext i1 @rmtree(ptr noundef %31, i1 noundef zeroext %35)
  br i1 %36, label %38, label %37

37:                                               ; preds = %25
  call void (i32, i32, ptr, ...) @pg_log_generic(i32 noundef 4, i32 noundef 0, ptr noundef @.str.64)
  br label %38

38:                                               ; preds = %37, %25
  br label %39

39:                                               ; preds = %38, %24
  %40 = load ptr, ptr @cleanup_dir_list, align 8
  %41 = getelementptr inbounds nuw %struct.cb_cleanup_dir, ptr %40, i32 0, i32 2
  %42 = load ptr, ptr %41, align 8
  store ptr %42, ptr @cleanup_dir_list, align 8
  %43 = load ptr, ptr %1, align 8
  call void @pfree(ptr noundef %43)
  call void @llvm.lifetime.end.p0(i64 8, ptr %1) #9
  br label %2, !llvm.loop !17

44:                                               ; preds = %2
  ret void
}