; Function Attrs: nounwind uwtable
define internal void @cleanup_directories_atexit() #3 {
  %1 = load ptr, ptr @cleanup_dir_list, align 8
  %.not8 = icmp eq ptr %1, null
  br i1 %.not8, label %._crit_edge, label %.lr.ph

.lr.ph:                                           ; preds = %0, %17
  %2 = phi ptr [ %21, %17 ], [ %1, %0 ]
  %3 = getelementptr inbounds nuw i8, ptr %2, i64 8
  %4 = load i8, ptr %3, align 8, !range !7, !noundef !8
  %5 = trunc nuw i8 %4 to i1
  %6 = load ptr, ptr %2, align 8
  br i1 %5, label %7, label %12

7:                                                ; preds = %.lr.ph
  tail call void (i32, i32, ptr, ...) @pg_log_generic(i32 noundef 2, i32 noundef 0, ptr noundef nonnull @.str.61, ptr noundef %6) #12
  %8 = load ptr, ptr %2, align 8
  %9 = load i8, ptr %3, align 8, !range !7, !noundef !8
  %10 = trunc nuw i8 %9 to i1
  %11 = tail call zeroext i1 @rmtree(ptr noundef %8, i1 noundef zeroext %10) #12
  br i1 %11, label %17, label %.sink.split

12:                                               ; preds = %.lr.ph
  tail call void (i32, i32, ptr, ...) @pg_log_generic(i32 noundef 2, i32 noundef 0, ptr noundef nonnull @.str.63, ptr noundef %6) #12
  %13 = load ptr, ptr %2, align 8
  %14 = load i8, ptr %3, align 8, !range !7, !noundef !8
  %15 = trunc nuw i8 %14 to i1
  %16 = tail call zeroext i1 @rmtree(ptr noundef %13, i1 noundef zeroext %15) #12
  br i1 %16, label %17, label %.sink.split

.sink.split:                                      ; preds = %12, %7
  %.str.64.sink = phi ptr [ @.str.62, %7 ], [ @.str.64, %12 ]
  tail call void (i32, i32, ptr, ...) @pg_log_generic(i32 noundef 4, i32 noundef 0, ptr noundef nonnull %.str.64.sink) #12
  br label %17

17:                                               ; preds = %.sink.split, %12, %7
  %18 = load ptr, ptr @cleanup_dir_list, align 8
  %19 = getelementptr inbounds nuw i8, ptr %18, i64 16
  %20 = load ptr, ptr %19, align 8
  store ptr %20, ptr @cleanup_dir_list, align 8
  tail call void @pfree(ptr noundef nonnull %2) #12
  %21 = load ptr, ptr @cleanup_dir_list, align 8
  %.not = icmp eq ptr %21, null
  br i1 %.not, label %._crit_edge, label %.lr.ph, !llvm.loop !19

._crit_edge:                                      ; preds = %17, %0
  ret void
}